; ModuleID = 'source-C-CXX/42/1093.c'
source_filename = "source-C-CXX/42/1093.c"
target datalayout = "e-m:e-p270:32:32-p271:32:32-p272:64:64-i64:64-f80:128-n8:16:32:64-S128"
target triple = "x86_64-pc-linux-gnu"

@.str = private unnamed_addr constant [3 x i8] c"%d\00", align 1
@.str.1 = private unnamed_addr constant [7 x i8] c"%d %d\0A\00", align 1

; Function Attrs: nofree nounwind sspstrong uwtable
define dso_local i32 @main() local_unnamed_addr #0 {
  %1 = alloca i32, align 4
  %2 = bitcast i32* %1 to i8*
  call void @llvm.lifetime.start.p0i8(i64 4, i8* nonnull %2) #4
  %3 = call i32 (i8*, ...) @__isoc99_scanf(i8* getelementptr inbounds ([3 x i8], [3 x i8]* @.str, i64 0, i64 0), i32* nonnull %1)
  %4 = load i32, i32* %1, align 4, !tbaa !5
  %5 = icmp slt i32 %4, 4
  br i1 %5, label %40, label %6

6:                                                ; preds = %0, %34
  %7 = phi i32 [ %35, %34 ], [ %4, %0 ]
  %8 = phi i32 [ %39, %34 ], [ -2, %0 ]
  %9 = phi i32 [ %36, %34 ], [ 2, %0 ]
  %10 = icmp ugt i32 %9, 2
  br i1 %10, label %13, label %18

11:                                               ; preds = %13
  %12 = icmp eq i32 %17, %9
  br i1 %12, label %18, label %13, !llvm.loop !9

13:                                               ; preds = %6, %11
  %14 = phi i32 [ %17, %11 ], [ 2, %6 ]
  %15 = urem i32 %9, %14
  %16 = icmp eq i32 %15, 0
  %17 = add nuw nsw i32 %14, 1
  br i1 %16, label %34, label %11

18:                                               ; preds = %11, %6
  %19 = sub nsw i32 %7, %9
  %20 = add i32 %7, %8
  %21 = call i32 @llvm.smax.i32(i32 %20, i32 2)
  br label %22

22:                                               ; preds = %28, %18
  %23 = phi i32 [ 2, %18 ], [ %29, %28 ]
  %24 = icmp eq i32 %23, %21
  br i1 %24, label %34, label %25

25:                                               ; preds = %22
  %26 = srem i32 %19, %23
  %27 = icmp eq i32 %26, 0
  br i1 %27, label %34, label %28

28:                                               ; preds = %25
  %29 = add nuw i32 %23, 1
  %30 = icmp eq i32 %29, %19
  br i1 %30, label %31, label %22, !llvm.loop !11

31:                                               ; preds = %28
  %32 = call i32 (i8*, ...) @printf(i8* nonnull dereferenceable(1) getelementptr inbounds ([7 x i8], [7 x i8]* @.str.1, i64 0, i64 0), i32 %9, i32 %19)
  %33 = load i32, i32* %1, align 4, !tbaa !5
  br label %34

34:                                               ; preds = %13, %22, %25, %31
  %35 = phi i32 [ %33, %31 ], [ %7, %25 ], [ %7, %22 ], [ %7, %13 ]
  %36 = add nuw nsw i32 %9, 1
  %37 = sdiv i32 %35, 2
  %38 = icmp slt i32 %9, %37
  %39 = add nsw i32 %8, -1
  br i1 %38, label %6, label %40, !llvm.loop !12

40:                                               ; preds = %34, %0
  call void @llvm.lifetime.end.p0i8(i64 4, i8* nonnull %2) #4
  ret i32 0
}

; Function Attrs: argmemonly mustprogress nofree nosync nounwind willreturn
declare void @llvm.lifetime.start.p0i8(i64 immarg, i8* nocapture) #1

; Function Attrs: nofree nounwind
declare noundef i32 @__isoc99_scanf(i8* nocapture noundef readonly, ...) local_unnamed_addr #2

; Function Attrs: nofree nounwind
declare noundef i32 @printf(i8* nocapture noundef readonly, ...) local_unnamed_addr #2

; Function Attrs: argmemonly mustprogress nofree nosync nounwind willreturn
declare void @llvm.lifetime.end.p0i8(i64 immarg, i8* nocapture) #1

; Function Attrs: nofree nosync nounwind readnone speculatable willreturn
declare i32 @llvm.smax.i32(i32, i32) #3


!llvm.module.flags = !{!0, !1, !2, !3}
!llvm.ident = !{!4}

!0 = !{i32 1, !"wchar_size", i32 4}
!1 = !{i32 7, !"PIC Level", i32 2}
!2 = !{i32 7, !"PIE Level", i32 2}
!3 = !{i32 7, !"uwtable", i32 1}
!4 = !{!"clang version 13.0.0"}
!5 = !{!6, !6, i64 0}
!6 = !{!"int", !7, i64 0}
!7 = !{!"omnipotent char", !8, i64 0}
!8 = !{!"Simple C/C++ TBAA"}
!9 = distinct !{!9, !10}
!10 = !{!"llvm.loop.mustprogress"}
!11 = distinct !{!11, !10}
!12 = distinct !{!12, !10}
